(dp1
S'OriginalConfig'
p2
ccopy_reg
_reconstructor
p3
(cWMCore.Configuration
Configuration
p4
c__builtin__
object
p5
NtRp6
(dp7
S'Site'
p8
g3
(cWMCore.Configuration
ConfigSection
p9
g5
NtRp10
(dp11
S'_internal_documentation'
p12
S''
sS'_internal_settings'
p13
c__builtin__
set
p14
((lp15
S'whitelist'
p16
aS'storageSite'
p17
atRp18
sS'_internal_name'
p19
g8
sS'_internal_docstrings'
p20
(dp21
sS'_internal_children'
p22
g14
((ltRp23
sg17
S'T2_US_MIT'
p24
sS'_internal_parent_ref'
p25
Nsg16
(lp26
g24
asbsS'_internal_sections'
p27
(lp28
S'General'
p29
aS'JobType'
p30
aS'Data'
p31
aS'User'
p32
ag8
asg29
g3
(g9
g5
NtRp33
(dp34
g12
S''
sg13
g14
((lp35
S'transferOutputs'
p36
atRp37
sg19
g29
sg20
(dp38
sg36
I01
sg22
g14
((ltRp39
sg25
NsbsS'_internal_webapps'
p40
(lp41
sg32
g3
(g9
g5
NtRp42
(dp43
g12
S''
sg13
g14
((ltRp44
sg19
g32
sg20
(dp45
sg22
g14
((ltRp46
sg25
NsbsS'_internal_components'
p47
(lp48
sg31
g3
(g9
g5
NtRp49
(dp50
S'outputDatasetTag'
p51
S'Pythia8_Dijet_0T_pthat170_pp_TuneCUETP8M1_Hydjet_MinBias_5020GeV_PrivMC'
p52
sS'publication'
p53
I01
sS'unitsPerJob'
p54
I100
sg12
S''
sg13
g14
((lp55
g51
aS'totalUnits'
p56
ag54
aS'splitting'
p57
aS'outputPrimaryDataset'
p58
ag53
atRp59
sg19
g31
sg57
S'EventBased'
p60
sg20
(dp61
sg22
g14
((ltRp62
sg58
S'PYTHIA_QCD_0T_TuneCUETP8M1_cfi_GEN_SIM_5020GeV'
p63
sg25
Nsg56
I60000
sbsg30
g3
(g9
g5
NtRp64
(dp65
S'outputFiles'
p66
(lp67
S'step1.root'
p68
asg12
S''
sg13
g14
((lp69
S'psetName'
p70
aS'pluginName'
p71
aS'inputFiles'
p72
ag66
atRp73
sg19
g30
sg20
(dp74
sg71
S'PrivateMC'
p75
sg22
g14
((ltRp76
sg70
S'QCD_0T_TuneCUETP8M1_cfi_GEN_SIM_170.py'
p77
sg25
Nsg72
(lp78
S'rssLimit'
p79
asbsbsS'voGroup'
p80
S''
sS'Server'
p81
S'cmsweb.cern.ch'
p82
sS'instance'
p83
S'prod'
p84
sS'RequestName'
p85
S'151109_180548:rkunnawa_crab_20151109_190541'
p86
sS'voRole'
p87
S'NULL'
p88
sS'Port'
p89
S''
s.