(dp1
S'OriginalConfig'
p2
ccopy_reg
_reconstructor
p3
(cWMCore.Configuration
Configuration
p4
c__builtin__
object
p5
NtRp6
(dp7
S'Site'
p8
g3
(cWMCore.Configuration
ConfigSection
p9
g5
NtRp10
(dp11
S'_internal_documentation'
p12
S''
sS'_internal_settings'
p13
c__builtin__
set
p14
((lp15
S'whitelist'
p16
aS'storageSite'
p17
atRp18
sS'_internal_name'
p19
g8
sS'_internal_docstrings'
p20
(dp21
sS'_internal_children'
p22
g14
((ltRp23
sg17
S'T2_US_MIT'
p24
sS'_internal_parent_ref'
p25
Nsg16
(lp26
g24
asbsS'_internal_sections'
p27
(lp28
S'General'
p29
aS'JobType'
p30
aS'Data'
p31
aS'User'
p32
ag8
asg29
g3
(g9
g5
NtRp33
(dp34
g12
S''
sg13
g14
((lp35
S'transferOutputs'
p36
atRp37
sg19
g29
sg20
(dp38
sg36
I01
sg22
g14
((ltRp39
sg25
NsbsS'_internal_webapps'
p40
(lp41
sg32
g3
(g9
g5
NtRp42
(dp43
g12
S''
sg13
g14
((ltRp44
sg19
g32
sg20
(dp45
sg22
g14
((ltRp46
sg25
NsbsS'_internal_components'
p47
(lp48
sg31
g3
(g9
g5
NtRp49
(dp50
S'inputDataset'
p51
S'/PYTHIA_QCD_0T_TuneCUETP8M1_cfi_GEN_SIM_5020GeV/rkunnawa-Pythia8_Dijet_0T_pthat120_pp_TuneCUETP8M1_Hydjet_MinBias_5020GeV_PrivMC-d028721760b876293003ea1ff2334c9c/USER'
p52
sS'outputDatasetTag'
p53
S'Pythia8_Dijet_0T_pthat120_pp_TuneCUETP8M1_Hydjet_MinBias_5020GeV_DIGIRAW_PrivMC'
p54
sS'totalUnits'
p55
I59000
sS'splitting'
p56
S'EventAwareLumiBased'
p57
sS'unitsPerJob'
p58
I100
sg12
S''
sg13
g14
((lp59
g51
ag53
ag55
ag58
aS'inputDBS'
p60
ag56
aS'publication'
p61
atRp62
sg19
g31
sg60
S'phys03'
p63
sg20
(dp64
sg22
g14
((ltRp65
sg25
Nsg61
I01
sbsg30
g3
(g9
g5
NtRp66
(dp67
S'outputFiles'
p68
(lp69
S'step2.root'
p70
asg12
S''
sg13
g14
((lp71
S'psetName'
p72
aS'pluginName'
p73
aS'inputFiles'
p74
ag68
atRp75
sg19
g30
sg20
(dp76
sg73
S'Analysis'
p77
sg22
g14
((ltRp78
sg72
S'step2_DIGI_L1_DIGI2RAW_HLT_RAW2DIGI_L1Reco_PU.py'
p79
sg25
Nsg74
(lp80
S'rssLimit'
p81
asbsbsS'voGroup'
p82
S''
sS'Server'
p83
S'cmsweb.cern.ch'
p84
sS'instance'
p85
S'prod'
p86
sS'RequestName'
p87
S'151110_030523:rkunnawa_crab_20151110_040513'
p88
sS'voRole'
p89
S'NULL'
p90
sS'Port'
p91
S''
s.